target datalayout = "e-m:e-p270:32:32-p271:32:32-p272:64:64-i64:64-i128:128-f80:128-n8:16:32:64-S128"
target triple = "x86_64-pc-linux-gnu"

%"class.icu_77::UObject" = type { ptr }
%"class.icu_77::NumberFormat" = type <{ %"class.icu_77::Format", i8, [3 x i8], i32, i32, i32, i32, i8, i8, [4 x i16], [2 x i8], i32, [4 x i8] }>
%"class.icu_77::Format" = type { %"class.icu_77::UObject", ptr, ptr }

; Function Attrs: mustprogress uwtable
define noundef nonnull align 8 dereferenceable(60) ptr @_ZN6icu_7712NumberFormataSERKS0_(ptr noundef nonnull align 8 dereferenceable(60) %0, ptr noundef nonnull align 8 dereferenceable(60) %1) #1 align 2 {
  %3 = alloca ptr, align 8
  %4 = alloca ptr, align 8
  store ptr %0, ptr %3, align 8, !tbaa !40
  store ptr %1, ptr %4, align 8, !tbaa !40
  %5 = load ptr, ptr %3, align 8
  %6 = load ptr, ptr %4, align 8, !tbaa !40
  %7 = icmp ne ptr %5, %6
  br i1 %7, label %8, label %51

8:                                                ; preds = %2
  %9 = load ptr, ptr %4, align 8, !tbaa !40
  %10 = call noundef nonnull align 8 dereferenceable(24) ptr @_ZN6icu_776FormataSERKS0_(ptr noundef nonnull align 8 dereferenceable(24) %5, ptr noundef nonnull align 8 dereferenceable(24) %9)
  %11 = load ptr, ptr %4, align 8, !tbaa !40
  %12 = getelementptr inbounds nuw %"class.icu_77::NumberFormat", ptr %11, i32 0, i32 1
  %13 = load i8, ptr %12, align 8, !tbaa !42
  %14 = getelementptr inbounds nuw %"class.icu_77::NumberFormat", ptr %5, i32 0, i32 1
  store i8 %13, ptr %14, align 8, !tbaa !42
  %15 = load ptr, ptr %4, align 8, !tbaa !40
  %16 = getelementptr inbounds nuw %"class.icu_77::NumberFormat", ptr %15, i32 0, i32 3
  %17 = load i32, ptr %16, align 4, !tbaa !47
  %18 = getelementptr inbounds nuw %"class.icu_77::NumberFormat", ptr %5, i32 0, i32 3
  store i32 %17, ptr %18, align 4, !tbaa !47
  %19 = load ptr, ptr %4, align 8, !tbaa !40
  %20 = getelementptr inbounds nuw %"class.icu_77::NumberFormat", ptr %19, i32 0, i32 4
  %21 = load i32, ptr %20, align 8, !tbaa !48
  %22 = getelementptr inbounds nuw %"class.icu_77::NumberFormat", ptr %5, i32 0, i32 4
  store i32 %21, ptr %22, align 8, !tbaa !48
  %23 = load ptr, ptr %4, align 8, !tbaa !40
  %24 = getelementptr inbounds nuw %"class.icu_77::NumberFormat", ptr %23, i32 0, i32 5
  %25 = load i32, ptr %24, align 4, !tbaa !49
  %26 = getelementptr inbounds nuw %"class.icu_77::NumberFormat", ptr %5, i32 0, i32 5
  store i32 %25, ptr %26, align 4, !tbaa !49
  %27 = load ptr, ptr %4, align 8, !tbaa !40
  %28 = getelementptr inbounds nuw %"class.icu_77::NumberFormat", ptr %27, i32 0, i32 6
  %29 = load i32, ptr %28, align 8, !tbaa !50
  %30 = getelementptr inbounds nuw %"class.icu_77::NumberFormat", ptr %5, i32 0, i32 6
  store i32 %29, ptr %30, align 8, !tbaa !50
  %31 = load ptr, ptr %4, align 8, !tbaa !40
  %32 = getelementptr inbounds nuw %"class.icu_77::NumberFormat", ptr %31, i32 0, i32 7
  %33 = load i8, ptr %32, align 4, !tbaa !51
  %34 = getelementptr inbounds nuw %"class.icu_77::NumberFormat", ptr %5, i32 0, i32 7
  store i8 %33, ptr %34, align 4, !tbaa !51
  %35 = getelementptr inbounds nuw %"class.icu_77::NumberFormat", ptr %5, i32 0, i32 9
  %36 = getelementptr inbounds [4 x i16], ptr %35, i64 0, i64 0
  %37 = load ptr, ptr %4, align 8, !tbaa !40
  %38 = getelementptr inbounds nuw %"class.icu_77::NumberFormat", ptr %37, i32 0, i32 9
  %39 = getelementptr inbounds [4 x i16], ptr %38, i64 0, i64 0
  %40 = call ptr @u_strncpy_77(ptr noundef %36, ptr noundef %39, i32 noundef 3)
  %41 = getelementptr inbounds nuw %"class.icu_77::NumberFormat", ptr %5, i32 0, i32 9
  %42 = getelementptr inbounds [4 x i16], ptr %41, i64 0, i64 3
  store i16 0, ptr %42, align 2, !tbaa !54
  %43 = load ptr, ptr %4, align 8, !tbaa !40
  %44 = getelementptr inbounds nuw %"class.icu_77::NumberFormat", ptr %43, i32 0, i32 8
  %45 = load i8, ptr %44, align 1, !tbaa !52
  %46 = getelementptr inbounds nuw %"class.icu_77::NumberFormat", ptr %5, i32 0, i32 8
  store i8 %45, ptr %46, align 1, !tbaa !52
  %47 = load ptr, ptr %4, align 8, !tbaa !40
  %48 = getelementptr inbounds nuw %"class.icu_77::NumberFormat", ptr %47, i32 0, i32 11
  %49 = load i32, ptr %48, align 8, !tbaa !53
  %50 = getelementptr inbounds nuw %"class.icu_77::NumberFormat", ptr %5, i32 0, i32 11
  store i32 %49, ptr %50, align 8, !tbaa !53
  br label %51

51:                                               ; preds = %8, %2
  ret ptr %5
}